; Function Attrs: mustprogress uwtable
define void @_ZN6icu_7513SPUStringPoolC2ER10UErrorCode(ptr nocapture noundef nonnull writeonly align 8 dereferenceable(16) %this, ptr noundef nonnull align 4 dereferenceable(4) %status) unnamed_addr #2 align 2 personality ptr @__gxx_personality_v0 {
entry:
  %fHash = getelementptr inbounds i8, ptr %this, i64 8
  tail call void @llvm.memset.p0.i64(ptr noundef nonnull align 8 dereferenceable(16) %this, i8 0, i64 16, i1 false)
  %call = tail call noundef ptr @_ZN6icu_757UMemorynwEm(i64 noundef 40) #10
  %new.isnull = icmp eq ptr %call, null
  br i1 %new.isnull, label %new.cont, label %new.notnull

new.notnull:                                      ; preds = %entry
  invoke void @_ZN6icu_757UVectorC1ER10UErrorCode(ptr noundef nonnull align 8 dereferenceable(40) %call, ptr noundef nonnull align 4 dereferenceable(4) %status)
          to label %_ZN6icu_7512LocalPointerINS_7UVectorEEC2EPS1_R10UErrorCode.exit unwind label %lpad

new.cont:                                         ; preds = %entry
  %0 = load i32, ptr %status, align 4
  %cmp.i.i = icmp sgt i32 %0, 0
  br i1 %cmp.i.i, label %_ZN6icu_7512LocalPointerINS_7UVectorEED2Ev.exit10, label %if.then.i

if.then.i:                                        ; preds = %new.cont
  store i32 7, ptr %status, align 4
  br label %_ZN6icu_7512LocalPointerINS_7UVectorEED2Ev.exit10

_ZN6icu_7512LocalPointerINS_7UVectorEEC2EPS1_R10UErrorCode.exit: ; preds = %new.notnull
  %.pre = load i32, ptr %status, align 4
  %1 = icmp slt i32 %.pre, 1
  br i1 %1, label %if.end, label %delete.notnull.i7

lpad:                                             ; preds = %new.notnull
  %2 = landingpad { ptr, i32 }
          cleanup
  tail call void @_ZN6icu_757UMemorydlEPv(ptr noundef nonnull %call) #10
  br label %eh.resume

delete.notnull.i:                                 ; preds = %if.end
  %3 = landingpad { ptr, i32 }
          cleanup
  %vtable.i = load ptr, ptr %call, align 8
  %vfn.i = getelementptr inbounds i8, ptr %vtable.i, i64 8
  %4 = load ptr, ptr %vfn.i, align 8
  tail call void %4(ptr noundef nonnull align 8 dereferenceable(40) %call) #10
  br label %eh.resume

if.end:                                           ; preds = %_ZN6icu_7512LocalPointerINS_7UVectorEEC2EPS1_R10UErrorCode.exit
  %call9 = invoke noundef ptr @_ZN6icu_757UVector10setDeleterEPFvPvE(ptr noundef nonnull align 8 dereferenceable(40) %call, ptr noundef nonnull @"_ZZN6icu_7513SPUStringPoolC1ER10UErrorCodeEN3$_08__invokeEPv")
          to label %invoke.cont8 unwind label %delete.notnull.i

invoke.cont8:                                     ; preds = %if.end
  store ptr %call, ptr %this, align 8
  %call14 = tail call ptr @uhash_open_75(ptr noundef nonnull @uhash_hashUnicodeString_75, ptr noundef nonnull @uhash_compareUnicodeString_75, ptr noundef null, ptr noundef nonnull %status)
  store ptr %call14, ptr %fHash, align 8
  br label %_ZN6icu_7512LocalPointerINS_7UVectorEED2Ev.exit10

delete.notnull.i7:                                ; preds = %_ZN6icu_7512LocalPointerINS_7UVectorEEC2EPS1_R10UErrorCode.exit
  %vtable.i8 = load ptr, ptr %call, align 8
  %vfn.i9 = getelementptr inbounds i8, ptr %vtable.i8, i64 8
  %5 = load ptr, ptr %vfn.i9, align 8
  tail call void %5(ptr noundef nonnull align 8 dereferenceable(40) %call) #10
  br label %_ZN6icu_7512LocalPointerINS_7UVectorEED2Ev.exit10

_ZN6icu_7512LocalPointerINS_7UVectorEED2Ev.exit10: ; preds = %new.cont, %if.then.i, %invoke.cont8, %delete.notnull.i7
  ret void

eh.resume:                                        ; preds = %delete.notnull.i, %lpad
  %.pn = phi { ptr, i32 } [ %2, %lpad ], [ %3, %delete.notnull.i ]
  resume { ptr, i32 } %.pn
}